; ModuleID = '63/918.c'
source_filename = "63/918.c"
target datalayout = "e-m:e-p270:32:32-p271:32:32-p272:64:64-i64:64-f80:128-n8:16:32:64-S128"
target triple = "x86_64-pc-linux-gnu"

@.str = private unnamed_addr constant [5 x i8] c"%d%d\00", align 1
@.str.1 = private unnamed_addr constant [3 x i8] c"%d\00", align 1
@.str.2 = private unnamed_addr constant [4 x i8] c" %d\00", align 1
@.str.3 = private unnamed_addr constant [2 x i8] c"\0A\00", align 1

; Function Attrs: noinline nounwind uwtable
define dso_local i32 @main() #0 {
  %1 = alloca i32, align 4
  %2 = alloca [101 x [101 x i32]], align 16
  %3 = alloca [101 x [101 x i32]], align 16
  %4 = alloca [101 x [101 x i32]], align 16
  %5 = alloca i32, align 4
  %6 = alloca i32, align 4
  %7 = alloca i32, align 4
  %8 = alloca i32, align 4
  %9 = alloca i32, align 4
  %10 = alloca i32, align 4
  %11 = alloca i32, align 4
  %12 = alloca i32, align 4
  store i32 0, i32* %1, align 4
  %13 = call i32 (i8*, ...) @__isoc99_scanf(i8* getelementptr inbounds ([5 x i8], [5 x i8]* @.str, i64 0, i64 0), i32* %5, i32* %7)
  store i32 1, i32* %9, align 4
  br label %14

14:                                               ; preds = %35, %0
  %15 = load i32, i32* %9, align 4
  %16 = load i32, i32* %5, align 4
  %17 = icmp sle i32 %15, %16
  br i1 %17, label %18, label %38

18:                                               ; preds = %14
  store i32 1, i32* %10, align 4
  br label %19

19:                                               ; preds = %31, %18
  %20 = load i32, i32* %10, align 4
  %21 = load i32, i32* %7, align 4
  %22 = icmp sle i32 %20, %21
  br i1 %22, label %23, label %34

23:                                               ; preds = %19
  %24 = load i32, i32* %9, align 4
  %25 = sext i32 %24 to i64
  %26 = getelementptr inbounds [101 x [101 x i32]], [101 x [101 x i32]]* %2, i64 0, i64 %25
  %27 = load i32, i32* %10, align 4
  %28 = sext i32 %27 to i64
  %29 = getelementptr inbounds [101 x i32], [101 x i32]* %26, i64 0, i64 %28
  %30 = call i32 (i8*, ...) @__isoc99_scanf(i8* getelementptr inbounds ([3 x i8], [3 x i8]* @.str.1, i64 0, i64 0), i32* %29)
  br label %31

31:                                               ; preds = %23
  %32 = load i32, i32* %10, align 4
  %33 = add nsw i32 %32, 1
  store i32 %33, i32* %10, align 4
  br label %19

34:                                               ; preds = %19
  br label %35

35:                                               ; preds = %34
  %36 = load i32, i32* %9, align 4
  %37 = add nsw i32 %36, 1
  store i32 %37, i32* %9, align 4
  br label %14

38:                                               ; preds = %14
  %39 = call i32 (i8*, ...) @__isoc99_scanf(i8* getelementptr inbounds ([5 x i8], [5 x i8]* @.str, i64 0, i64 0), i32* %6, i32* %8)
  store i32 1, i32* %9, align 4
  br label %40

40:                                               ; preds = %61, %38
  %41 = load i32, i32* %9, align 4
  %42 = load i32, i32* %6, align 4
  %43 = icmp sle i32 %41, %42
  br i1 %43, label %44, label %64

44:                                               ; preds = %40
  store i32 1, i32* %10, align 4
  br label %45

45:                                               ; preds = %57, %44
  %46 = load i32, i32* %10, align 4
  %47 = load i32, i32* %8, align 4
  %48 = icmp sle i32 %46, %47
  br i1 %48, label %49, label %60

49:                                               ; preds = %45
  %50 = load i32, i32* %9, align 4
  %51 = sext i32 %50 to i64
  %52 = getelementptr inbounds [101 x [101 x i32]], [101 x [101 x i32]]* %3, i64 0, i64 %51
  %53 = load i32, i32* %10, align 4
  %54 = sext i32 %53 to i64
  %55 = getelementptr inbounds [101 x i32], [101 x i32]* %52, i64 0, i64 %54
  %56 = call i32 (i8*, ...) @__isoc99_scanf(i8* getelementptr inbounds ([3 x i8], [3 x i8]* @.str.1, i64 0, i64 0), i32* %55)
  br label %57

57:                                               ; preds = %49
  %58 = load i32, i32* %10, align 4
  %59 = add nsw i32 %58, 1
  store i32 %59, i32* %10, align 4
  br label %45

60:                                               ; preds = %45
  br label %61

61:                                               ; preds = %60
  %62 = load i32, i32* %9, align 4
  %63 = add nsw i32 %62, 1
  store i32 %63, i32* %9, align 4
  br label %40

64:                                               ; preds = %40
  store i32 1, i32* %9, align 4
  br label %65

65:                                               ; preds = %164, %64
  %66 = load i32, i32* %9, align 4
  %67 = load i32, i32* %5, align 4
  %68 = icmp sle i32 %66, %67
  br i1 %68, label %69, label %167

69:                                               ; preds = %65
  store i32 1, i32* %11, align 4
  br label %70

70:                                               ; preds = %98, %69
  %71 = load i32, i32* %11, align 4
  %72 = load i32, i32* %7, align 4
  %73 = icmp sle i32 %71, %72
  br i1 %73, label %74, label %101

74:                                               ; preds = %70
  %75 = load i32, i32* %9, align 4
  %76 = sext i32 %75 to i64
  %77 = getelementptr inbounds [101 x [101 x i32]], [101 x [101 x i32]]* %4, i64 0, i64 %76
  %78 = getelementptr inbounds [101 x i32], [101 x i32]* %77, i64 0, i64 1
  %79 = load i32, i32* %78, align 4
  %80 = load i32, i32* %9, align 4
  %81 = sext i32 %80 to i64
  %82 = getelementptr inbounds [101 x [101 x i32]], [101 x [101 x i32]]* %2, i64 0, i64 %81
  %83 = load i32, i32* %11, align 4
  %84 = sext i32 %83 to i64
  %85 = getelementptr inbounds [101 x i32], [101 x i32]* %82, i64 0, i64 %84
  %86 = load i32, i32* %85, align 4
  %87 = load i32, i32* %11, align 4
  %88 = sext i32 %87 to i64
  %89 = getelementptr inbounds [101 x [101 x i32]], [101 x [101 x i32]]* %3, i64 0, i64 %88
  %90 = getelementptr inbounds [101 x i32], [101 x i32]* %89, i64 0, i64 1
  %91 = load i32, i32* %90, align 4
  %92 = mul nsw i32 %86, %91
  %93 = add nsw i32 %79, %92
  %94 = load i32, i32* %9, align 4
  %95 = sext i32 %94 to i64
  %96 = getelementptr inbounds [101 x [101 x i32]], [101 x [101 x i32]]* %4, i64 0, i64 %95
  %97 = getelementptr inbounds [101 x i32], [101 x i32]* %96, i64 0, i64 1
  store i32 %93, i32* %97, align 4
  br label %98

98:                                               ; preds = %74
  %99 = load i32, i32* %11, align 4
  %100 = add nsw i32 %99, 1
  store i32 %100, i32* %11, align 4
  br label %70

101:                                              ; preds = %70
  %102 = load i32, i32* %9, align 4
  %103 = sext i32 %102 to i64
  %104 = getelementptr inbounds [101 x [101 x i32]], [101 x [101 x i32]]* %4, i64 0, i64 %103
  %105 = getelementptr inbounds [101 x i32], [101 x i32]* %104, i64 0, i64 1
  %106 = load i32, i32* %105, align 4
  %107 = call i32 (i8*, ...) @printf(i8* getelementptr inbounds ([3 x i8], [3 x i8]* @.str.1, i64 0, i64 0), i32 %106)
  store i32 2, i32* %10, align 4
  br label %108

108:                                              ; preds = %159, %101
  %109 = load i32, i32* %10, align 4
  %110 = load i32, i32* %8, align 4
  %111 = icmp sle i32 %109, %110
  br i1 %111, label %112, label %162

112:                                              ; preds = %108
  store i32 1, i32* %11, align 4
  br label %113

113:                                              ; preds = %147, %112
  %114 = load i32, i32* %11, align 4
  %115 = load i32, i32* %7, align 4
  %116 = icmp sle i32 %114, %115
  br i1 %116, label %117, label %150

117:                                              ; preds = %113
  %118 = load i32, i32* %9, align 4
  %119 = sext i32 %118 to i64
  %120 = getelementptr inbounds [101 x [101 x i32]], [101 x [101 x i32]]* %4, i64 0, i64 %119
  %121 = load i32, i32* %10, align 4
  %122 = sext i32 %121 to i64
  %123 = getelementptr inbounds [101 x i32], [101 x i32]* %120, i64 0, i64 %122
  %124 = load i32, i32* %123, align 4
  %125 = load i32, i32* %9, align 4
  %126 = sext i32 %125 to i64
  %127 = getelementptr inbounds [101 x [101 x i32]], [101 x [101 x i32]]* %2, i64 0, i64 %126
  %128 = load i32, i32* %11, align 4
  %129 = sext i32 %128 to i64
  %130 = getelementptr inbounds [101 x i32], [101 x i32]* %127, i64 0, i64 %129
  %131 = load i32, i32* %130, align 4
  %132 = load i32, i32* %11, align 4
  %133 = sext i32 %132 to i64
  %134 = getelementptr inbounds [101 x [101 x i32]], [101 x [101 x i32]]* %3, i64 0, i64 %133
  %135 = load i32, i32* %10, align 4
  %136 = sext i32 %135 to i64
  %137 = getelementptr inbounds [101 x i32], [101 x i32]* %134, i64 0, i64 %136
  %138 = load i32, i32* %137, align 4
  %139 = mul nsw i32 %131, %138
  %140 = add nsw i32 %124, %139
  %141 = load i32, i32* %9, align 4
  %142 = sext i32 %141 to i64
  %143 = getelementptr inbounds [101 x [101 x i32]], [101 x [101 x i32]]* %4, i64 0, i64 %142
  %144 = load i32, i32* %10, align 4
  %145 = sext i32 %144 to i64
  %146 = getelementptr inbounds [101 x i32], [101 x i32]* %143, i64 0, i64 %145
  store i32 %140, i32* %146, align 4
  br label %147

147:                                              ; preds = %117
  %148 = load i32, i32* %11, align 4
  %149 = add nsw i32 %148, 1
  store i32 %149, i32* %11, align 4
  br label %113

150:                                              ; preds = %113
  %151 = load i32, i32* %9, align 4
  %152 = sext i32 %151 to i64
  %153 = getelementptr inbounds [101 x [101 x i32]], [101 x [101 x i32]]* %4, i64 0, i64 %152
  %154 = load i32, i32* %10, align 4
  %155 = sext i32 %154 to i64
  %156 = getelementptr inbounds [101 x i32], [101 x i32]* %153, i64 0, i64 %155
  %157 = load i32, i32* %156, align 4
  %158 = call i32 (i8*, ...) @printf(i8* getelementptr inbounds ([4 x i8], [4 x i8]* @.str.2, i64 0, i64 0), i32 %157)
  br label %159

159:                                              ; preds = %150
  %160 = load i32, i32* %10, align 4
  %161 = add nsw i32 %160, 1
  store i32 %161, i32* %10, align 4
  br label %108

162:                                              ; preds = %108
  %163 = call i32 (i8*, ...) @printf(i8* getelementptr inbounds ([2 x i8], [2 x i8]* @.str.3, i64 0, i64 0))
  br label %164

164:                                              ; preds = %162
  %165 = load i32, i32* %9, align 4
  %166 = add nsw i32 %165, 1
  store i32 %166, i32* %9, align 4
  br label %65

167:                                              ; preds = %65
  %168 = call i32 @getchar()
  %169 = call i32 @getchar()
  %170 = call i32 @getchar()
  %171 = load i32, i32* %1, align 4
  ret i32 %171
}

declare dso_local i32 @__isoc99_scanf(i8*, ...) #1

declare dso_local i32 @printf(i8*, ...) #1

declare dso_local i32 @getchar() #1


!llvm.module.flags = !{!0}
!llvm.ident = !{!1}

!0 = !{i32 1, !"wchar_size", i32 4}
!1 = !{!"clang version 10.0.0-4ubuntu1 "}
